target datalayout = "e-m:e-p270:32:32-p271:32:32-p272:64:64-i64:64-i128:128-f80:128-n8:16:32:64-S128"
target triple = "x86_64-pc-linux-gnu"

%struct.H5HG_heap_t = type { %struct.H5C_cache_entry_t, i64, i64, ptr, i64, i64, ptr, ptr }
%struct.H5C_cache_entry_t = type { ptr, i64, i64, ptr, i8, ptr, i8, i8, i8, i8, i32, i8, i8, i8, i8, i8, i32, ptr, i32, i32, i32, i32, i32, i8, i8, ptr, ptr, ptr, ptr, ptr, ptr, i8, i32, i8, i64, ptr, i64, i64, i32, i8, i32, i32, i8, ptr, ptr, ptr }

@.str.1 = private unnamed_addr constant [103 x i8] c"generated/home/dtcxzyw/WorkSpace/Projects/compilers/llvm-opt-benchmark/bench/hdf5/hdf5/src/H5HGcache.c\00", align 1
@__func__.H5HG__cache_heap_get_final_load_size = private unnamed_addr constant [37 x i8] c"H5HG__cache_heap_get_final_load_size\00", align 1
@H5E_HEAP_g = external global i64, align 8
@H5E_CANTDECODE_g = external global i64, align 8
@.str.2 = private unnamed_addr constant [32 x i8] c"can't decode global heap prefix\00", align 1

; Function Attrs: nounwind uwtable
define internal i32 @H5HG__cache_heap_get_final_load_size(ptr noundef %0, i64 noundef %1, ptr noundef %2, ptr noundef %3) #0 {
  %5 = alloca ptr, align 8
  %6 = alloca i64, align 8
  %7 = alloca ptr, align 8
  %8 = alloca ptr, align 8
  %9 = alloca %struct.H5HG_heap_t, align 8
  %10 = alloca i32, align 4
  %11 = alloca i8, align 1
  store ptr %0, ptr %5, align 8
  store i64 %1, ptr %6, align 8
  store ptr %2, ptr %7, align 8
  store ptr %3, ptr %8, align 8
  store i32 0, ptr %10, align 4
  store i8 0, ptr %11, align 1
  %12 = getelementptr inbounds %struct.H5HG_heap_t, ptr %9, i32 0, i32 2
  store i64 0, ptr %12, align 8
  %13 = load ptr, ptr %5, align 8
  %14 = load i64, ptr %6, align 8
  %15 = load ptr, ptr %7, align 8
  %16 = call i32 @H5HG__hdr_deserialize(ptr noundef %9, ptr noundef %13, i64 noundef %14, ptr noundef %15)
  %17 = icmp slt i32 %16, 0
  br i1 %17, label %18, label %33

18:                                               ; preds = %4
  br label %19

19:                                               ; preds = %18
  br label %20

20:                                               ; preds = %19
  br label %21

21:                                               ; preds = %20
  %22 = load i64, ptr @H5E_HEAP_g, align 8
  %23 = load i64, ptr @H5E_CANTDECODE_g, align 8
  %24 = call i32 (ptr, ptr, i32, i64, i64, ptr, ...) @H5E_printf_stack(ptr noundef @.str.1, ptr noundef @__func__.H5HG__cache_heap_get_final_load_size, i32 noundef 195, i64 noundef %22, i64 noundef %23, ptr noundef @.str.2)
  br label %25

25:                                               ; preds = %21
  store i8 1, ptr %11, align 1
  %26 = load i8, ptr %11, align 1
  %27 = trunc i8 %26 to i1
  %28 = zext i1 %27 to i8
  store i8 %28, ptr %11, align 1
  br label %29

29:                                               ; preds = %25
  br label %30

30:                                               ; preds = %29
  store i32 -1, ptr %10, align 4
  br label %37

31:                                               ; No predecessors!
  br label %32

32:                                               ; preds = %31
  br label %33

33:                                               ; preds = %32, %4
  %34 = getelementptr inbounds %struct.H5HG_heap_t, ptr %9, i32 0, i32 2
  %35 = load i64, ptr %34, align 8
  %36 = load ptr, ptr %8, align 8
  store i64 %35, ptr %36, align 8
  br label %37

37:                                               ; preds = %33, %30
  %38 = load i32, ptr %10, align 4
  ret i32 %38
}