; Function Attrs: nounwind uwtable
define internal range(i32 -1, 1) i32 @H5HG__cache_heap_get_final_load_size(ptr noundef %0, i64 noundef %1, ptr noundef %2, ptr nocapture noundef writeonly %3) #1 {
  %5 = alloca %struct.H5HG_heap_t, align 8
  %6 = getelementptr inbounds i8, ptr %5, i64 256
  store i64 0, ptr %6, align 8
  %7 = call fastcc i32 @H5HG__hdr_deserialize(ptr noundef nonnull %5, ptr noundef %0, i64 noundef %1, ptr noundef %2)
  %8 = icmp slt i32 %7, 0
  br i1 %8, label %9, label %13

9:                                                ; preds = %4
  %10 = load i64, ptr @H5E_HEAP_g, align 8
  %11 = load i64, ptr @H5E_CANTDECODE_g, align 8
  %12 = tail call i32 (ptr, ptr, i32, i64, i64, ptr, ...) @H5E_printf_stack(ptr noundef nonnull @.str.1, ptr noundef nonnull @__func__.H5HG__cache_heap_get_final_load_size, i32 noundef 195, i64 noundef %10, i64 noundef %11, ptr noundef nonnull @.str.2) #9
  br label %15

13:                                               ; preds = %4
  %14 = load i64, ptr %6, align 8
  store i64 %14, ptr %3, align 8
  br label %15

15:                                               ; preds = %13, %9
  %.0 = phi i32 [ -1, %9 ], [ 0, %13 ]
  ret i32 %.0
}